; Function Attrs: nounwind uwtable
define dso_local void @strvec_push_nodup(ptr noundef captures(none) %0, ptr noundef %1) local_unnamed_addr #3 {
  %3 = load ptr, ptr %0, align 8, !tbaa !4
  %4 = icmp eq ptr %3, @empty_strvec
  br i1 %4, label %5, label %6

5:                                                ; preds = %2
  store ptr null, ptr %0, align 8, !tbaa !4
  br label %6

6:                                                ; preds = %2, %5
  %7 = phi ptr [ %3, %2 ], [ null, %5 ]
  %8 = getelementptr inbounds nuw i8, ptr %0, i64 8
  %9 = load i64, ptr %8, align 8, !tbaa !11
  %10 = add i64 %9, 2
  %11 = getelementptr inbounds nuw i8, ptr %0, i64 16
  %12 = load i64, ptr %11, align 8, !tbaa !12
  %13 = icmp ugt i64 %10, %12
  br i1 %13, label %14, label %22

14:                                               ; preds = %6
  %15 = mul i64 %12, 3
  %16 = add i64 %15, 48
  %17 = lshr i64 %16, 1
  %. = tail call i64 @llvm.umax.i64(i64 %17, i64 %10)
  store i64 %., ptr %11, align 8, !tbaa !12
  %18 = icmp ugt i64 %., 2305843009213693951
  br i1 %18, label %19, label %st_mult.exit

19:                                               ; preds = %14
  tail call void (ptr, ...) @die(ptr noundef nonnull @.str.3, i64 noundef 8, i64 noundef %.) #10
  unreachable

st_mult.exit:                                     ; preds = %14
  %20 = shl nuw i64 %., 3
  %21 = tail call ptr @xrealloc(ptr noundef %7, i64 noundef %20) #11
  store ptr %21, ptr %0, align 8, !tbaa !4
  %.pre = load i64, ptr %8, align 8, !tbaa !11
  br label %22

22:                                               ; preds = %6, %st_mult.exit
  %23 = phi i64 [ %9, %6 ], [ %.pre, %st_mult.exit ]
  %24 = phi ptr [ %7, %6 ], [ %21, %st_mult.exit ]
  %25 = add i64 %23, 1
  store i64 %25, ptr %8, align 8, !tbaa !11
  %26 = getelementptr inbounds nuw ptr, ptr %24, i64 %23
  store ptr %1, ptr %26, align 8, !tbaa !13
  %27 = getelementptr inbounds nuw ptr, ptr %24, i64 %25
  store ptr null, ptr %27, align 8, !tbaa !13
  ret void
}